target datalayout = "e-m:e-p270:32:32-p271:32:32-p272:64:64-i64:64-i128:128-f80:128-n8:16:32:64-S128"
target triple = "x86_64-pc-linux-gnu"

%struct.FunctionCallInfoBaseData = type { ptr, ptr, ptr, i32, i8, i16, [0 x %struct.NullableDatum] }
%struct.NullableDatum = type { i64, i8 }

; Function Attrs: inlinehint nounwind uwtable
define internal i64 @BoolGetDatum(i1 noundef zeroext %0) #2 {
  %2 = alloca i8, align 1
  %3 = zext i1 %0 to i8
  store i8 %3, ptr %2, align 1
  %4 = load i8, ptr %2, align 1, !range !6, !noundef !7
  %5 = trunc i8 %4 to i1
  %6 = select i1 %5, i32 1, i32 0
  %7 = sext i32 %6 to i64
  ret i64 %7
}

; Function Attrs: inlinehint nounwind uwtable
define internal ptr @DatumGetPointer(i64 noundef %0) #2 {
  %2 = alloca i64, align 8
  store i64 %0, ptr %2, align 8
  %3 = load i64, ptr %2, align 8
  %4 = inttoptr i64 %3 to ptr
  ret ptr %4
}

; Function Attrs: nounwind uwtable
define dso_local i64 @bpchar_pattern_lt(ptr noundef %0) #0 {
  %2 = alloca ptr, align 8
  %3 = alloca ptr, align 8
  %4 = alloca ptr, align 8
  %5 = alloca i32, align 4
  store ptr %0, ptr %2, align 8
  call void @llvm.lifetime.start.p0(i64 8, ptr %3) #8
  %6 = load ptr, ptr %2, align 8
  %7 = getelementptr inbounds nuw %struct.FunctionCallInfoBaseData, ptr %6, i32 0, i32 6
  %8 = getelementptr inbounds [0 x %struct.NullableDatum], ptr %7, i64 0, i64 0
  %9 = getelementptr inbounds nuw %struct.NullableDatum, ptr %8, i32 0, i32 0
  %10 = load i64, ptr %9, align 8
  %11 = call ptr @DatumGetPointer(i64 noundef %10)
  %12 = call ptr @pg_detoast_datum_packed(ptr noundef %11)
  store ptr %12, ptr %3, align 8
  call void @llvm.lifetime.start.p0(i64 8, ptr %4) #8
  %13 = load ptr, ptr %2, align 8
  %14 = getelementptr inbounds nuw %struct.FunctionCallInfoBaseData, ptr %13, i32 0, i32 6
  %15 = getelementptr inbounds [0 x %struct.NullableDatum], ptr %14, i64 0, i64 1
  %16 = getelementptr inbounds nuw %struct.NullableDatum, ptr %15, i32 0, i32 0
  %17 = load i64, ptr %16, align 8
  %18 = call ptr @DatumGetPointer(i64 noundef %17)
  %19 = call ptr @pg_detoast_datum_packed(ptr noundef %18)
  store ptr %19, ptr %4, align 8
  call void @llvm.lifetime.start.p0(i64 4, ptr %5) #8
  %20 = load ptr, ptr %3, align 8
  %21 = load ptr, ptr %4, align 8
  %22 = call i32 @internal_bpchar_pattern_compare(ptr noundef %20, ptr noundef %21)
  store i32 %22, ptr %5, align 4
  br label %23

23:                                               ; preds = %1
  %24 = load ptr, ptr %3, align 8
  %25 = load ptr, ptr %2, align 8
  %26 = getelementptr inbounds nuw %struct.FunctionCallInfoBaseData, ptr %25, i32 0, i32 6
  %27 = getelementptr inbounds [0 x %struct.NullableDatum], ptr %26, i64 0, i64 0
  %28 = getelementptr inbounds nuw %struct.NullableDatum, ptr %27, i32 0, i32 0
  %29 = load i64, ptr %28, align 8
  %30 = call ptr @DatumGetPointer(i64 noundef %29)
  %31 = icmp ne ptr %24, %30
  br i1 %31, label %32, label %34

32:                                               ; preds = %23
  %33 = load ptr, ptr %3, align 8
  call void @pfree(ptr noundef %33)
  br label %34

34:                                               ; preds = %32, %23
  br label %35

35:                                               ; preds = %34
  br label %36

36:                                               ; preds = %35
  br label %37

37:                                               ; preds = %36
  %38 = load ptr, ptr %4, align 8
  %39 = load ptr, ptr %2, align 8
  %40 = getelementptr inbounds nuw %struct.FunctionCallInfoBaseData, ptr %39, i32 0, i32 6
  %41 = getelementptr inbounds [0 x %struct.NullableDatum], ptr %40, i64 0, i64 1
  %42 = getelementptr inbounds nuw %struct.NullableDatum, ptr %41, i32 0, i32 0
  %43 = load i64, ptr %42, align 8
  %44 = call ptr @DatumGetPointer(i64 noundef %43)
  %45 = icmp ne ptr %38, %44
  br i1 %45, label %46, label %48

46:                                               ; preds = %37
  %47 = load ptr, ptr %4, align 8
  call void @pfree(ptr noundef %47)
  br label %48

48:                                               ; preds = %46, %37
  br label %49

49:                                               ; preds = %48
  br label %50

50:                                               ; preds = %49
  %51 = load i32, ptr %5, align 4
  %52 = icmp slt i32 %51, 0
  %53 = call i64 @BoolGetDatum(i1 noundef zeroext %52)
  call void @llvm.lifetime.end.p0(i64 4, ptr %5) #8
  call void @llvm.lifetime.end.p0(i64 8, ptr %4) #8
  call void @llvm.lifetime.end.p0(i64 8, ptr %3) #8
  ret i64 %53
}