; Function Attrs: nounwind uwtable
define dso_local range(i64 0, 2) i64 @bpchar_pattern_lt(ptr noundef readonly captures(none) %0) local_unnamed_addr #0 {
  %2 = getelementptr inbounds nuw i8, ptr %0, i64 32
  %3 = load i64, ptr %2, align 8
  %4 = inttoptr i64 %3 to ptr
  %5 = tail call ptr @pg_detoast_datum_packed(ptr noundef %4) #13
  %6 = getelementptr inbounds nuw i8, ptr %0, i64 48
  %7 = load i64, ptr %6, align 8
  %8 = inttoptr i64 %7 to ptr
  %9 = tail call ptr @pg_detoast_datum_packed(ptr noundef %8) #13
  %10 = tail call fastcc i32 @internal_bpchar_pattern_compare(ptr noundef %5, ptr noundef %9)
  %11 = load i64, ptr %2, align 8
  %12 = inttoptr i64 %11 to ptr
  %.not = icmp eq ptr %5, %12
  br i1 %.not, label %14, label %13

13:                                               ; preds = %1
  tail call void @pfree(ptr noundef %5) #13
  br label %14

14:                                               ; preds = %1, %13
  %15 = load i64, ptr %6, align 8
  %16 = inttoptr i64 %15 to ptr
  %.not11 = icmp eq ptr %9, %16
  br i1 %.not11, label %18, label %17

17:                                               ; preds = %14
  tail call void @pfree(ptr noundef %9) #13
  br label %18

18:                                               ; preds = %17, %14
  %.lobit = lshr i32 %10, 31
  %19 = zext nneg i32 %.lobit to i64
  ret i64 %19
}